target datalayout = "e-m:e-p270:32:32-p271:32:32-p272:64:64-i64:64-i128:128-f80:128-n8:16:32:64-S128"
target triple = "x86_64-pc-linux-gnu"

%struct.Mv = type { i32, i32 }

; Function Attrs: nounwind uwtable
define void @ff_vvc_round_mv(ptr noundef %0, i32 noundef %1, i32 noundef %2) #0 {
  %4 = alloca ptr, align 8
  %5 = alloca i32, align 4
  %6 = alloca i32, align 4
  %7 = alloca i32, align 4
  store ptr %0, ptr %4, align 8, !tbaa !4
  store i32 %1, ptr %5, align 4, !tbaa !9
  store i32 %2, ptr %6, align 4, !tbaa !9
  %8 = load i32, ptr %6, align 4, !tbaa !9
  %9 = icmp ne i32 %8, 0
  br i1 %9, label %10, label %50

10:                                               ; preds = %3
  call void @llvm.lifetime.start.p0(i64 4, ptr %7) #9
  %11 = load i32, ptr %6, align 4, !tbaa !9
  %12 = sub nsw i32 %11, 1
  %13 = shl i32 1, %12
  store i32 %13, ptr %7, align 4, !tbaa !9
  %14 = load ptr, ptr %4, align 8, !tbaa !4
  %15 = getelementptr inbounds nuw %struct.Mv, ptr %14, i32 0, i32 0
  %16 = load i32, ptr %15, align 4, !tbaa !11
  %17 = load i32, ptr %7, align 4, !tbaa !9
  %18 = add nsw i32 %16, %17
  %19 = load ptr, ptr %4, align 8, !tbaa !4
  %20 = getelementptr inbounds nuw %struct.Mv, ptr %19, i32 0, i32 0
  %21 = load i32, ptr %20, align 4, !tbaa !11
  %22 = icmp sge i32 %21, 0
  %23 = zext i1 %22 to i32
  %24 = sub nsw i32 %18, %23
  %25 = load i32, ptr %6, align 4, !tbaa !9
  %26 = ashr i32 %24, %25
  %27 = load i32, ptr %5, align 4, !tbaa !9
  %28 = shl i32 1, %27
  %29 = mul nsw i32 %26, %28
  %30 = load ptr, ptr %4, align 8, !tbaa !4
  %31 = getelementptr inbounds nuw %struct.Mv, ptr %30, i32 0, i32 0
  store i32 %29, ptr %31, align 4, !tbaa !11
  %32 = load ptr, ptr %4, align 8, !tbaa !4
  %33 = getelementptr inbounds nuw %struct.Mv, ptr %32, i32 0, i32 1
  %34 = load i32, ptr %33, align 4, !tbaa !13
  %35 = load i32, ptr %7, align 4, !tbaa !9
  %36 = add nsw i32 %34, %35
  %37 = load ptr, ptr %4, align 8, !tbaa !4
  %38 = getelementptr inbounds nuw %struct.Mv, ptr %37, i32 0, i32 1
  %39 = load i32, ptr %38, align 4, !tbaa !13
  %40 = icmp sge i32 %39, 0
  %41 = zext i1 %40 to i32
  %42 = sub nsw i32 %36, %41
  %43 = load i32, ptr %6, align 4, !tbaa !9
  %44 = ashr i32 %42, %43
  %45 = load i32, ptr %5, align 4, !tbaa !9
  %46 = shl i32 1, %45
  %47 = mul nsw i32 %44, %46
  %48 = load ptr, ptr %4, align 8, !tbaa !4
  %49 = getelementptr inbounds nuw %struct.Mv, ptr %48, i32 0, i32 1
  store i32 %47, ptr %49, align 4, !tbaa !13
  call void @llvm.lifetime.end.p0(i64 4, ptr %7) #9
  br label %67

50:                                               ; preds = %3
  %51 = load ptr, ptr %4, align 8, !tbaa !4
  %52 = getelementptr inbounds nuw %struct.Mv, ptr %51, i32 0, i32 0
  %53 = load i32, ptr %52, align 4, !tbaa !11
  %54 = load i32, ptr %5, align 4, !tbaa !9
  %55 = shl i32 1, %54
  %56 = mul nsw i32 %53, %55
  %57 = load ptr, ptr %4, align 8, !tbaa !4
  %58 = getelementptr inbounds nuw %struct.Mv, ptr %57, i32 0, i32 0
  store i32 %56, ptr %58, align 4, !tbaa !11
  %59 = load ptr, ptr %4, align 8, !tbaa !4
  %60 = getelementptr inbounds nuw %struct.Mv, ptr %59, i32 0, i32 1
  %61 = load i32, ptr %60, align 4, !tbaa !13
  %62 = load i32, ptr %5, align 4, !tbaa !9
  %63 = shl i32 1, %62
  %64 = mul nsw i32 %61, %63
  %65 = load ptr, ptr %4, align 8, !tbaa !4
  %66 = getelementptr inbounds nuw %struct.Mv, ptr %65, i32 0, i32 1
  store i32 %64, ptr %66, align 4, !tbaa !13
  br label %67

67:                                               ; preds = %50, %10
  ret void
}