; Function Attrs: mustprogress nofree norecurse nosync nounwind willreturn memory(argmem: readwrite) uwtable
define void @ff_vvc_round_mv(ptr noundef captures(none) %0, i32 noundef %1, i32 noundef %2) local_unnamed_addr #0 {
  %.not = icmp eq i32 %2, 0
  br i1 %.not, label %20, label %4

4:                                                ; preds = %3
  %5 = add nsw i32 %2, -1
  %6 = shl nuw i32 1, %5
  %7 = load i32, ptr %0, align 4, !tbaa !4
  %8 = add nsw i32 %7, %6
  %9 = icmp sgt i32 %7, -1
  %.neg = sext i1 %9 to i32
  %10 = add i32 %8, %.neg
  %11 = ashr i32 %10, %2
  %12 = shl i32 %11, %1
  store i32 %12, ptr %0, align 4, !tbaa !4
  %13 = getelementptr inbounds nuw i8, ptr %0, i64 4
  %14 = load i32, ptr %13, align 4, !tbaa !9
  %15 = add nsw i32 %14, %6
  %16 = icmp sgt i32 %14, -1
  %.neg19 = sext i1 %16 to i32
  %17 = add i32 %15, %.neg19
  %18 = ashr i32 %17, %2
  %19 = shl i32 %18, %1
  store i32 %19, ptr %13, align 4, !tbaa !9
  br label %26

20:                                               ; preds = %3
  %21 = load i32, ptr %0, align 4, !tbaa !4
  %22 = shl i32 %21, %1
  store i32 %22, ptr %0, align 4, !tbaa !4
  %23 = getelementptr inbounds nuw i8, ptr %0, i64 4
  %24 = load i32, ptr %23, align 4, !tbaa !9
  %25 = shl i32 %24, %1
  store i32 %25, ptr %23, align 4, !tbaa !9
  br label %26

26:                                               ; preds = %20, %4
  ret void
}